; Function Attrs: mustprogress nounwind uwtable
define internal noundef zeroext i1 @_ZNK12_GLOBAL__N_113X86AsmBackend17mayNeedRelaxationERKN4llvm6MCInstERKNS1_15MCSubtargetInfoE(ptr nocapture nonnull readnone align 8 %0, ptr noundef nonnull align 8 dereferenceable(128) %1, ptr nocapture nonnull readnone align 8 %2) unnamed_addr #0 align 2 {
  %4 = load i32, ptr %1, align 8
  %5 = tail call noundef zeroext i1 @_ZN4llvm3X868isCCMPCCEj(i32 noundef %4) #23
  switch i32 %4, label %6 [
    i32 1964, label %18
    i32 1944, label %18
  ]

6:                                                ; preds = %3
  %7 = tail call noundef i32 @_ZN4llvm3X8629getOpcodeForLongImmediateFormEj(i32 noundef %4) #23
  %.not = icmp eq i32 %7, %4
  br i1 %.not, label %18, label %8

8:                                                ; preds = %6
  %9 = getelementptr inbounds nuw i8, ptr %1, i64 16
  %10 = tail call noundef i64 @_ZNK4llvm15SmallVectorBaseIjE4sizeEv(ptr noundef nonnull align 8 dereferenceable(16) %9) #23
  %11 = select i1 %5, i64 4294967293, i64 4294967295
  %12 = add i64 %11, %10
  %13 = and i64 %12, 4294967295
  %14 = load ptr, ptr %9, align 8
  %15 = getelementptr inbounds %"class.llvm::MCOperand", ptr %14, i64 %13
  %16 = load i8, ptr %15, align 8
  %17 = icmp eq i8 %16, 5
  br label %18

18:                                               ; preds = %3, %3, %6, %8
  %19 = phi i1 [ true, %3 ], [ false, %6 ], [ %17, %8 ], [ true, %3 ]
  ret i1 %19
}